target datalayout = "e-m:e-p270:32:32-p271:32:32-p272:64:64-i64:64-i128:128-f80:128-n8:16:32:64-S128"
target triple = "x86_64-unknown-linux-gnu"

%"class.icu_75::UObject" = type { ptr }
%"class.icu_75::UnicodeString" = type { %"class.icu_75::Replaceable", %"union.icu_75::UnicodeString::StackBufferOrFields" }
%"class.icu_75::Replaceable" = type { %"class.icu_75::UObject" }
%"union.icu_75::UnicodeString::StackBufferOrFields" = type { %struct.anon.6, [32 x i8] }
%struct.anon.6 = type { i16, i32, i32, ptr }
%"class.icu_75::number::impl::PropertiesAffixPatternProvider" = type <{ %"class.icu_75::number::impl::AffixPatternProvider", %"class.icu_75::UnicodeString", %"class.icu_75::UnicodeString", %"class.icu_75::UnicodeString", %"class.icu_75::UnicodeString", i8, i8, i8, [5 x i8] }>
%"class.icu_75::number::impl::AffixPatternProvider" = type { ptr }

; Function Attrs: mustprogress uwtable
define noundef zeroext i1 @_ZNK6icu_756number4impl30PropertiesAffixPatternProvider18containsSymbolTypeENS1_16AffixPatternTypeER10UErrorCode(ptr noundef nonnull align 8 dereferenceable(267) %this, i32 noundef %type, ptr noundef nonnull align 4 dereferenceable(4) %status) unnamed_addr #1 align 2 {
entry:
  %this.addr = alloca ptr, align 8
  %type.addr = alloca i32, align 4
  %status.addr = alloca ptr, align 8
  store ptr %this, ptr %this.addr, align 8
  store i32 %type, ptr %type.addr, align 4
  store ptr %status, ptr %status.addr, align 8
  %this1 = load ptr, ptr %this.addr, align 8
  %posPrefix = getelementptr inbounds %"class.icu_75::number::impl::PropertiesAffixPatternProvider", ptr %this1, i32 0, i32 1
  %0 = load i32, ptr %type.addr, align 4
  %1 = load ptr, ptr %status.addr, align 8
  %call = call noundef zeroext i1 @_ZN6icu_756number4impl10AffixUtils12containsTypeERKNS_13UnicodeStringENS1_16AffixPatternTypeER10UErrorCode(ptr noundef nonnull align 8 dereferenceable(64) %posPrefix, i32 noundef %0, ptr noundef nonnull align 4 dereferenceable(4) %1)
  br i1 %call, label %lor.end, label %lor.lhs.false

lor.lhs.false:                                    ; preds = %entry
  %posSuffix = getelementptr inbounds %"class.icu_75::number::impl::PropertiesAffixPatternProvider", ptr %this1, i32 0, i32 2
  %2 = load i32, ptr %type.addr, align 4
  %3 = load ptr, ptr %status.addr, align 8
  %call2 = call noundef zeroext i1 @_ZN6icu_756number4impl10AffixUtils12containsTypeERKNS_13UnicodeStringENS1_16AffixPatternTypeER10UErrorCode(ptr noundef nonnull align 8 dereferenceable(64) %posSuffix, i32 noundef %2, ptr noundef nonnull align 4 dereferenceable(4) %3)
  br i1 %call2, label %lor.end, label %lor.lhs.false3

lor.lhs.false3:                                   ; preds = %lor.lhs.false
  %negPrefix = getelementptr inbounds %"class.icu_75::number::impl::PropertiesAffixPatternProvider", ptr %this1, i32 0, i32 3
  %4 = load i32, ptr %type.addr, align 4
  %5 = load ptr, ptr %status.addr, align 8
  %call4 = call noundef zeroext i1 @_ZN6icu_756number4impl10AffixUtils12containsTypeERKNS_13UnicodeStringENS1_16AffixPatternTypeER10UErrorCode(ptr noundef nonnull align 8 dereferenceable(64) %negPrefix, i32 noundef %4, ptr noundef nonnull align 4 dereferenceable(4) %5)
  br i1 %call4, label %lor.end, label %lor.rhs

lor.rhs:                                          ; preds = %lor.lhs.false3
  %negSuffix = getelementptr inbounds %"class.icu_75::number::impl::PropertiesAffixPatternProvider", ptr %this1, i32 0, i32 4
  %6 = load i32, ptr %type.addr, align 4
  %7 = load ptr, ptr %status.addr, align 8
  %call5 = call noundef zeroext i1 @_ZN6icu_756number4impl10AffixUtils12containsTypeERKNS_13UnicodeStringENS1_16AffixPatternTypeER10UErrorCode(ptr noundef nonnull align 8 dereferenceable(64) %negSuffix, i32 noundef %6, ptr noundef nonnull align 4 dereferenceable(4) %7)
  br label %lor.end

lor.end:                                          ; preds = %lor.rhs, %lor.lhs.false3, %lor.lhs.false, %entry
  %8 = phi i1 [ true, %lor.lhs.false3 ], [ true, %lor.lhs.false ], [ true, %entry ], [ %call5, %lor.rhs ]
  ret i1 %8
}