; Function Attrs: mustprogress uwtable
define noundef zeroext i1 @_ZNK6icu_756number4impl30PropertiesAffixPatternProvider18containsSymbolTypeENS1_16AffixPatternTypeER10UErrorCode(ptr noundef nonnull align 8 dereferenceable(267) %this, i32 noundef %type, ptr noundef nonnull align 4 dereferenceable(4) %status) unnamed_addr #1 align 2 {
entry:
  %posPrefix = getelementptr inbounds i8, ptr %this, i64 8
  %call = tail call noundef zeroext i1 @_ZN6icu_756number4impl10AffixUtils12containsTypeERKNS_13UnicodeStringENS1_16AffixPatternTypeER10UErrorCode(ptr noundef nonnull align 8 dereferenceable(64) %posPrefix, i32 noundef %type, ptr noundef nonnull align 4 dereferenceable(4) %status)
  br i1 %call, label %lor.end, label %lor.lhs.false

lor.lhs.false:                                    ; preds = %entry
  %posSuffix = getelementptr inbounds i8, ptr %this, i64 72
  %call2 = tail call noundef zeroext i1 @_ZN6icu_756number4impl10AffixUtils12containsTypeERKNS_13UnicodeStringENS1_16AffixPatternTypeER10UErrorCode(ptr noundef nonnull align 8 dereferenceable(64) %posSuffix, i32 noundef %type, ptr noundef nonnull align 4 dereferenceable(4) %status)
  br i1 %call2, label %lor.end, label %lor.lhs.false3

lor.lhs.false3:                                   ; preds = %lor.lhs.false
  %negPrefix = getelementptr inbounds i8, ptr %this, i64 136
  %call4 = tail call noundef zeroext i1 @_ZN6icu_756number4impl10AffixUtils12containsTypeERKNS_13UnicodeStringENS1_16AffixPatternTypeER10UErrorCode(ptr noundef nonnull align 8 dereferenceable(64) %negPrefix, i32 noundef %type, ptr noundef nonnull align 4 dereferenceable(4) %status)
  br i1 %call4, label %lor.end, label %lor.rhs

lor.rhs:                                          ; preds = %lor.lhs.false3
  %negSuffix = getelementptr inbounds i8, ptr %this, i64 200
  %call5 = tail call noundef zeroext i1 @_ZN6icu_756number4impl10AffixUtils12containsTypeERKNS_13UnicodeStringENS1_16AffixPatternTypeER10UErrorCode(ptr noundef nonnull align 8 dereferenceable(64) %negSuffix, i32 noundef %type, ptr noundef nonnull align 4 dereferenceable(4) %status)
  br label %lor.end

lor.end:                                          ; preds = %lor.rhs, %lor.lhs.false3, %lor.lhs.false, %entry
  %0 = phi i1 [ true, %lor.lhs.false3 ], [ true, %lor.lhs.false ], [ true, %entry ], [ %call5, %lor.rhs ]
  ret i1 %0
}